target datalayout = "e-m:e-p270:32:32-p271:32:32-p272:64:64-i64:64-i128:128-f80:128-n8:16:32:64-S128"
target triple = "x86_64-pc-linux-gnu"

%class.SafeOpFlags = type { i8, i8, i8, i32 }

; Function Attrs: mustprogress nounwind uwtable
define dso_local void @_ZN11SafeOpFlagsC2ERKS_(ptr noundef nonnull align 4 dereferenceable(8) %0, ptr noundef nonnull align 4 dereferenceable(8) %1) unnamed_addr #4 align 2 {
  %3 = alloca ptr, align 8
  %4 = alloca ptr, align 8
  store ptr %0, ptr %3, align 8, !tbaa !13
  store ptr %1, ptr %4, align 8, !tbaa !13
  %5 = load ptr, ptr %3, align 8
  %6 = getelementptr inbounds nuw %class.SafeOpFlags, ptr %5, i32 0, i32 0
  %7 = load ptr, ptr %4, align 8, !tbaa !13
  %8 = getelementptr inbounds nuw %class.SafeOpFlags, ptr %7, i32 0, i32 0
  %9 = load i8, ptr %8, align 4, !tbaa !21, !range !19, !noundef !20
  %10 = trunc i8 %9 to i1
  %11 = zext i1 %10 to i8
  store i8 %11, ptr %6, align 4, !tbaa !21
  %12 = getelementptr inbounds nuw %class.SafeOpFlags, ptr %5, i32 0, i32 1
  %13 = load ptr, ptr %4, align 8, !tbaa !13
  %14 = getelementptr inbounds nuw %class.SafeOpFlags, ptr %13, i32 0, i32 1
  %15 = load i8, ptr %14, align 1, !tbaa !23, !range !19, !noundef !20
  %16 = trunc i8 %15 to i1
  %17 = zext i1 %16 to i8
  store i8 %17, ptr %12, align 1, !tbaa !23
  %18 = getelementptr inbounds nuw %class.SafeOpFlags, ptr %5, i32 0, i32 2
  %19 = load ptr, ptr %4, align 8, !tbaa !13
  %20 = getelementptr inbounds nuw %class.SafeOpFlags, ptr %19, i32 0, i32 2
  %21 = load i8, ptr %20, align 2, !tbaa !24, !range !19, !noundef !20
  %22 = trunc i8 %21 to i1
  %23 = zext i1 %22 to i8
  store i8 %23, ptr %18, align 2, !tbaa !24
  %24 = getelementptr inbounds nuw %class.SafeOpFlags, ptr %5, i32 0, i32 3
  %25 = load ptr, ptr %4, align 8, !tbaa !13
  %26 = getelementptr inbounds nuw %class.SafeOpFlags, ptr %25, i32 0, i32 3
  %27 = load i32, ptr %26, align 4, !tbaa !25
  store i32 %27, ptr %24, align 4, !tbaa !25
  ret void
}